; Function Attrs: nounwind sspstrong uwtable
define dso_local void @v9fs_memread(ptr noundef captures(none) %0, ptr noundef %1, i64 noundef %2) local_unnamed_addr #1 {
  %4 = load ptr, ptr %0, align 8
  %5 = getelementptr inbounds nuw i8, ptr %0, i64 40
  %6 = load i64, ptr %5, align 8
  %7 = getelementptr inbounds nuw i8, ptr %0, i64 56
  %8 = load i64, ptr %7, align 8
  %9 = add i64 %8, %6
  tail call void @qtest_memread(ptr noundef %4, i64 noundef %9, ptr noundef %1, i64 noundef %2) #14
  %10 = load i64, ptr %7, align 8
  %11 = add i64 %10, %2
  store i64 %11, ptr %7, align 8
  ret void
}